; Function Attrs: mustprogress nounwind uwtable
define dso_local noundef zeroext i1 @_ZN4llvm25isStatepointDirectiveAttrENS_9AttributeE(ptr %0) local_unnamed_addr #0 {
  %2 = alloca %"class.llvm::Attribute", align 8
  store ptr %0, ptr %2, align 8
  %3 = call noundef zeroext i1 @_ZNK4llvm9Attribute12hasAttributeENS_9StringRefE(ptr noundef nonnull align 8 dereferenceable(8) %2, ptr nonnull @.str, i64 13) #3
  br i1 %3, label %6, label %4

4:                                                ; preds = %1
  %5 = call noundef zeroext i1 @_ZNK4llvm9Attribute12hasAttributeENS_9StringRefE(ptr noundef nonnull align 8 dereferenceable(8) %2, ptr nonnull @.str.1, i64 26) #3
  br label %6

6:                                                ; preds = %4, %1
  %7 = phi i1 [ true, %1 ], [ %5, %4 ]
  ret i1 %7
}